target datalayout = "e-m:e-p270:32:32-p271:32:32-p272:64:64-i64:64-i128:128-f80:128-n8:16:32:64-S128"
target triple = "x86_64-pc-linux-gnu"

%class.symbol = type { ptr }
%"class.spacer::(anonymous namespace)::contains_array_op_proc" = type <{ %class.i_expr_pred, ptr, i32, [4 x i8] }>
%class.i_expr_pred = type { ptr }
%class.ast = type { i32, i32, i32, i32 }
%class.app = type { %class.expr, ptr, i32, %struct.app_flags, [0 x ptr] }
%class.expr = type { %class.ast }
%struct.app_flags = type <{ i16, i8, i8 }>
%class.decl = type { %class.ast, %class.symbol, ptr }
%class.decl_info = type <{ i32, i32, %class.vector.130, i8, [7 x i8] }>
%class.vector.130 = type { ptr }

; Function Attrs: mustprogress nounwind uwtable
define linkonce_odr hidden noundef i32 @_ZNK9decl_info13get_family_idEv(ptr noundef nonnull align 8 dereferenceable(17) %0) #6 comdat align 2 {
  %2 = alloca ptr, align 8
  store ptr %0, ptr %2, align 8, !tbaa !366
  %3 = load ptr, ptr %2, align 8
  %4 = getelementptr inbounds nuw %class.decl_info, ptr %3, i32 0, i32 0
  %5 = load i32, ptr %4, align 8, !tbaa !367
  ret i32 %5
}

; Function Attrs: mustprogress uwtable
define linkonce_odr hidden noundef i32 @_ZNK4decl13get_family_idEv(ptr noundef nonnull align 8 dereferenceable(32) %0) #4 comdat align 2 {
  %2 = alloca ptr, align 8
  store ptr %0, ptr %2, align 8, !tbaa !361
  %3 = load ptr, ptr %2, align 8
  %4 = getelementptr inbounds nuw %class.decl, ptr %3, i32 0, i32 2
  %5 = load ptr, ptr %4, align 8, !tbaa !363
  %6 = icmp eq ptr %5, null
  br i1 %6, label %7, label %8

7:                                                ; preds = %1
  br label %12

8:                                                ; preds = %1
  %9 = getelementptr inbounds nuw %class.decl, ptr %3, i32 0, i32 2
  %10 = load ptr, ptr %9, align 8, !tbaa !363
  %11 = call noundef i32 @_ZNK9decl_info13get_family_idEv(ptr noundef nonnull align 8 dereferenceable(17) %10)
  br label %12

12:                                               ; preds = %8, %7
  %13 = phi i32 [ -1, %7 ], [ %11, %8 ]
  ret i32 %13
}

; Function Attrs: mustprogress nounwind uwtable
define linkonce_odr hidden noundef ptr @_ZNK3app8get_declEv(ptr noundef nonnull align 8 dereferenceable(32) %0) #6 comdat align 2 {
  %2 = alloca ptr, align 8
  store ptr %0, ptr %2, align 8, !tbaa !356
  %3 = load ptr, ptr %2, align 8
  %4 = getelementptr inbounds nuw %class.app, ptr %3, i32 0, i32 1
  %5 = load ptr, ptr %4, align 8, !tbaa !357
  ret ptr %5
}

; Function Attrs: mustprogress nounwind uwtable
define linkonce_odr hidden noundef i32 @_ZNK3ast8get_kindEv(ptr noundef nonnull align 4 dereferenceable(16) %0) #6 comdat align 2 {
  %2 = alloca ptr, align 8
  store ptr %0, ptr %2, align 8, !tbaa !344
  %3 = load ptr, ptr %2, align 8
  %4 = getelementptr inbounds nuw %class.ast, ptr %3, i32 0, i32 1
  %5 = load i32, ptr %4, align 4
  %6 = and i32 %5, 65535
  ret i32 %6
}

; Function Attrs: mustprogress uwtable
define linkonce_odr hidden noundef i32 @_ZNK3app13get_family_idEv(ptr noundef nonnull align 8 dereferenceable(32) %0) #4 comdat align 2 {
  %2 = alloca ptr, align 8
  store ptr %0, ptr %2, align 8, !tbaa !356
  %3 = load ptr, ptr %2, align 8
  %4 = call noundef ptr @_ZNK3app8get_declEv(ptr noundef nonnull align 8 dereferenceable(32) %3)
  %5 = call noundef i32 @_ZNK4decl13get_family_idEv(ptr noundef nonnull align 8 dereferenceable(32) %4)
  ret i32 %5
}

; Function Attrs: inlinehint mustprogress nounwind uwtable
define linkonce_odr hidden noundef ptr @_Z6to_appP3ast(ptr noundef %0) #7 comdat {
  %2 = alloca ptr, align 8
  store ptr %0, ptr %2, align 8, !tbaa !344
  %3 = load ptr, ptr %2, align 8, !tbaa !344
  ret ptr %3
}

; Function Attrs: inlinehint mustprogress uwtable
define linkonce_odr hidden noundef zeroext i1 @_Z6is_appPK3ast(ptr noundef %0) #8 comdat {
  %2 = alloca ptr, align 8
  store ptr %0, ptr %2, align 8, !tbaa !344
  %3 = load ptr, ptr %2, align 8, !tbaa !344
  %4 = call noundef i32 @_ZNK3ast8get_kindEv(ptr noundef nonnull align 4 dereferenceable(16) %3)
  %5 = icmp eq i32 %4, 0
  ret i1 %5
}

; Function Attrs: mustprogress uwtable
define internal noundef zeroext i1 @_ZN6spacer12_GLOBAL__N_122contains_array_op_procclEP4expr(ptr noundef nonnull align 8 dereferenceable(20) %0, ptr noundef %1) unnamed_addr #4 align 2 {
  %3 = alloca ptr, align 8
  %4 = alloca ptr, align 8
  store ptr %0, ptr %3, align 8, !tbaa !140
  store ptr %1, ptr %4, align 8, !tbaa !80
  %5 = load ptr, ptr %3, align 8
  %6 = load ptr, ptr %4, align 8, !tbaa !80
  %7 = call noundef zeroext i1 @_Z6is_appPK3ast(ptr noundef %6)
  br i1 %7, label %8, label %15

8:                                                ; preds = %2
  %9 = load ptr, ptr %4, align 8, !tbaa !80
  %10 = call noundef ptr @_Z6to_appP3ast(ptr noundef %9)
  %11 = call noundef i32 @_ZNK3app13get_family_idEv(ptr noundef nonnull align 8 dereferenceable(32) %10)
  %12 = getelementptr inbounds nuw %"class.spacer::(anonymous namespace)::contains_array_op_proc", ptr %5, i32 0, i32 2
  %13 = load i32, ptr %12, align 8, !tbaa !147
  %14 = icmp eq i32 %11, %13
  br label %15

15:                                               ; preds = %8, %2
  %16 = phi i1 [ false, %2 ], [ %14, %8 ]
  ret i1 %16
}