; Function Attrs: mustprogress nofree norecurse nosync nounwind willreturn memory(read, inaccessiblemem: none) uwtable
define internal noundef zeroext i1 @_ZN6spacer12_GLOBAL__N_122contains_array_op_procclEP4expr(ptr noundef nonnull readonly align 8 captures(none) dereferenceable(20) %0, ptr noundef readonly captures(none) %1) unnamed_addr #10 align 2 {
  %3 = getelementptr inbounds nuw i8, ptr %1, i64 4
  %4 = load i32, ptr %3, align 4
  %5 = and i32 %4, 65535
  %6 = icmp eq i32 %5, 0
  br i1 %6, label %7, label %19

7:                                                ; preds = %2
  %8 = getelementptr inbounds nuw i8, ptr %1, i64 16
  %9 = load ptr, ptr %8, align 8, !tbaa !212
  %10 = getelementptr inbounds nuw i8, ptr %9, i64 24
  %11 = load ptr, ptr %10, align 8, !tbaa !216
  %12 = icmp eq ptr %11, null
  br i1 %12, label %_ZNK3app13get_family_idEv.exit, label %13

13:                                               ; preds = %7
  %14 = load i32, ptr %11, align 8, !tbaa !219
  br label %_ZNK3app13get_family_idEv.exit

_ZNK3app13get_family_idEv.exit:                   ; preds = %7, %13
  %15 = phi i32 [ %14, %13 ], [ -1, %7 ]
  %16 = getelementptr inbounds nuw i8, ptr %0, i64 16
  %17 = load i32, ptr %16, align 8, !tbaa !120
  %18 = icmp eq i32 %15, %17
  br label %19

19:                                               ; preds = %_ZNK3app13get_family_idEv.exit, %2
  %20 = phi i1 [ false, %2 ], [ %18, %_ZNK3app13get_family_idEv.exit ]
  ret i1 %20
}